target datalayout = "e-m:e-p270:32:32-p271:32:32-p272:64:64-i64:64-i128:128-f80:128-n8:16:32:64-S128"
target triple = "x86_64-pc-linux-gnu"

%struct.ARKodeARKStepMemRec = type { ptr, ptr, i32, i32, i32, i32, i32, i32, ptr, ptr, ptr, ptr, ptr, ptr, i32, i32, i32, i32, ptr, ptr, ptr, ptr, i32, ptr, double, double, double, double, i32, double, double, double, double, double, double, i32, i64, i32, i32, i32, ptr, ptr, ptr, ptr, ptr, ptr, i32, ptr, ptr, ptr, ptr, ptr, ptr, i32, i32, i64, i64, i64, i64, i64, ptr, ptr, i32, i32, i32, double, double, ptr, i32, ptr, ptr }
%struct.ARKodeMemRec = type { ptr, double, ptr, i32, i32, double, double, ptr, i32, double, ptr, i32, i32, ptr, ptr, i32, ptr, ptr, i32, ptr, ptr, ptr, ptr, ptr, ptr, ptr, ptr, ptr, ptr, ptr, ptr, ptr, ptr, ptr, i32, ptr, ptr, i32, ptr, i32, ptr, ptr, ptr, ptr, ptr, ptr, ptr, ptr, ptr, ptr, ptr, ptr, ptr, ptr, ptr, ptr, ptr, ptr, ptr, ptr, ptr, ptr, ptr, ptr, ptr, ptr, i32, ptr, ptr, ptr, ptr, ptr, ptr, ptr, i32, ptr, ptr, ptr, i32, ptr, ptr, ptr, ptr, ptr, ptr, ptr, i32, i32, i32, i32, double, double, double, double, double, double, double, double, double, double, i32, ptr, i64, i32, i32, i32, i32, i64, i64, i32, i64, i64, i64, i64, i64, i64, i64, double, double, double, double, double, i32, double, double, i32, i32, i32, i32, i32, i32, i32, i32, ptr, i32, ptr, ptr, ptr, ptr, i32, i32, i32 }

@.str = private unnamed_addr constant [126 x i8] c"generated/home/dtcxzyw/WorkSpace/Projects/compilers/llvm-opt-benchmark/bench/sundials/sundials/src/arkode/arkode_arkstep_io.c\00", align 1
@__func__.arkStep_SetAutonomous = private unnamed_addr constant [22 x i8] c"arkStep_SetAutonomous\00", align 1
@.str.21 = private unnamed_addr constant [41 x i8] c"Setting nonlinear system function failed\00", align 1
@.str.22 = private unnamed_addr constant [25 x i8] c"A memory request failed.\00", align 1

; Function Attrs: nounwind uwtable
define i32 @arkStep_SetAutonomous(ptr noundef %0, i32 noundef %1) #0 {
  %3 = alloca i32, align 4
  %4 = alloca ptr, align 8
  %5 = alloca i32, align 4
  %6 = alloca ptr, align 8
  %7 = alloca i32, align 4
  %8 = alloca i32, align 4
  store ptr %0, ptr %4, align 8, !tbaa !20
  store i32 %1, ptr %5, align 4, !tbaa !7
  call void @llvm.lifetime.start.p0(i64 8, ptr %6) #4
  call void @llvm.lifetime.start.p0(i64 4, ptr %7) #4
  %9 = load ptr, ptr %4, align 8, !tbaa !20
  %10 = call i32 @arkStep_AccessStepMem(ptr noundef %9, ptr noundef @__func__.arkStep_SetAutonomous, ptr noundef %6)
  store i32 %10, ptr %7, align 4, !tbaa !7
  %11 = load i32, ptr %7, align 4, !tbaa !7
  %12 = icmp ne i32 %11, 0
  br i1 %12, label %13, label %15

13:                                               ; preds = %2
  %14 = load i32, ptr %7, align 4, !tbaa !7
  store i32 %14, ptr %3, align 4
  store i32 1, ptr %8, align 4
  br label %56

15:                                               ; preds = %2
  %16 = load i32, ptr %5, align 4, !tbaa !7
  %17 = load ptr, ptr %6, align 8, !tbaa !9
  %18 = getelementptr inbounds nuw %struct.ARKodeARKStepMemRec, ptr %17, i32 0, i32 2
  store i32 %16, ptr %18, align 8, !tbaa !71
  %19 = load i32, ptr %5, align 4, !tbaa !7
  %20 = icmp ne i32 %19, 0
  br i1 %20, label %21, label %29

21:                                               ; preds = %15
  %22 = load ptr, ptr %6, align 8, !tbaa !9
  %23 = getelementptr inbounds nuw %struct.ARKodeARKStepMemRec, ptr %22, i32 0, i32 3
  %24 = load i32, ptr %23, align 4, !tbaa !69
  %25 = icmp ne i32 %24, 0
  br i1 %25, label %26, label %29

26:                                               ; preds = %21
  %27 = load ptr, ptr %6, align 8, !tbaa !9
  %28 = getelementptr inbounds nuw %struct.ARKodeARKStepMemRec, ptr %27, i32 0, i32 4
  store i32 0, ptr %28, align 8, !tbaa !70
  br label %29

29:                                               ; preds = %26, %21, %15
  %30 = load ptr, ptr %4, align 8, !tbaa !20
  %31 = call i32 @arkStep_SetNlsSysFn(ptr noundef %30)
  store i32 %31, ptr %7, align 4, !tbaa !7
  %32 = load i32, ptr %7, align 4, !tbaa !7
  %33 = icmp ne i32 %32, 0
  br i1 %33, label %34, label %36

34:                                               ; preds = %29
  %35 = load ptr, ptr %4, align 8, !tbaa !20
  call void (ptr, i32, i32, ptr, ptr, ptr, ...) @arkProcessError(ptr noundef %35, i32 noundef -22, i32 noundef 903, ptr noundef @__func__.arkStep_SetAutonomous, ptr noundef @.str, ptr noundef @.str.21)
  store i32 -22, ptr %3, align 4
  store i32 1, ptr %8, align 4
  br label %56

36:                                               ; preds = %29
  %37 = load i32, ptr %5, align 4, !tbaa !7
  %38 = icmp ne i32 %37, 0
  br i1 %38, label %39, label %51

39:                                               ; preds = %36
  %40 = load ptr, ptr %4, align 8, !tbaa !20
  %41 = load ptr, ptr %4, align 8, !tbaa !20
  %42 = getelementptr inbounds nuw %struct.ARKodeMemRec, ptr %41, i32 0, i32 76
  %43 = load ptr, ptr %42, align 8, !tbaa !88
  %44 = load ptr, ptr %4, align 8, !tbaa !20
  %45 = getelementptr inbounds nuw %struct.ARKodeMemRec, ptr %44, i32 0, i32 83
  %46 = call i32 @arkAllocVec(ptr noundef %40, ptr noundef %43, ptr noundef %45)
  %47 = icmp ne i32 %46, 0
  br i1 %47, label %50, label %48

48:                                               ; preds = %39
  %49 = load ptr, ptr %4, align 8, !tbaa !20
  call void (ptr, i32, i32, ptr, ptr, ptr, ...) @arkProcessError(ptr noundef %49, i32 noundef -20, i32 noundef 914, ptr noundef @__func__.arkStep_SetAutonomous, ptr noundef @.str, ptr noundef @.str.22)
  store i32 -20, ptr %3, align 4
  store i32 1, ptr %8, align 4
  br label %56

50:                                               ; preds = %39
  br label %55

51:                                               ; preds = %36
  %52 = load ptr, ptr %4, align 8, !tbaa !20
  %53 = load ptr, ptr %4, align 8, !tbaa !20
  %54 = getelementptr inbounds nuw %struct.ARKodeMemRec, ptr %53, i32 0, i32 83
  call void @arkFreeVec(ptr noundef %52, ptr noundef %54)
  br label %55

55:                                               ; preds = %51, %50
  store i32 0, ptr %3, align 4
  store i32 1, ptr %8, align 4
  br label %56

56:                                               ; preds = %55, %48, %34, %13
  call void @llvm.lifetime.end.p0(i64 4, ptr %7) #4
  call void @llvm.lifetime.end.p0(i64 8, ptr %6) #4
  %57 = load i32, ptr %3, align 4
  ret i32 %57
}