; Function Attrs: nounwind uwtable
define i32 @arkStep_SetAutonomous(ptr noundef %0, i32 noundef %1) local_unnamed_addr #0 {
  %3 = alloca ptr, align 8
  call void @llvm.lifetime.start.p0(i64 8, ptr nonnull %3) #5
  %4 = call i32 @arkStep_AccessStepMem(ptr noundef %0, ptr noundef nonnull @__func__.arkStep_SetAutonomous, ptr noundef nonnull %3) #5
  %.not = icmp eq i32 %4, 0
  br i1 %.not, label %5, label %24

5:                                                ; preds = %2
  %6 = load ptr, ptr %3, align 8, !tbaa !3
  %7 = getelementptr inbounds nuw i8, ptr %6, i64 16
  store i32 %1, ptr %7, align 8, !tbaa !63
  %.not16 = icmp eq i32 %1, 0
  br i1 %.not16, label %.thread, label %8

8:                                                ; preds = %5
  %9 = getelementptr inbounds nuw i8, ptr %6, i64 20
  %10 = load i32, ptr %9, align 4, !tbaa !61
  %.not17 = icmp eq i32 %10, 0
  br i1 %.not17, label %13, label %11

11:                                               ; preds = %8
  %12 = getelementptr inbounds nuw i8, ptr %6, i64 24
  store i32 0, ptr %12, align 8, !tbaa !62
  br label %13

13:                                               ; preds = %11, %8
  %14 = call i32 @arkStep_SetNlsSysFn(ptr noundef %0) #5
  %.not18 = icmp eq i32 %14, 0
  br i1 %.not18, label %17, label %16

.thread:                                          ; preds = %5
  %15 = call i32 @arkStep_SetNlsSysFn(ptr noundef %0) #5
  %.not1820 = icmp eq i32 %15, 0
  br i1 %.not1820, label %.thread21, label %16

16:                                               ; preds = %.thread, %13
  call void (ptr, i32, i32, ptr, ptr, ptr, ...) @arkProcessError(ptr noundef %0, i32 noundef -22, i32 noundef 903, ptr noundef nonnull @__func__.arkStep_SetAutonomous, ptr noundef nonnull @.str, ptr noundef nonnull @.str.21) #5
  br label %24

17:                                               ; preds = %13
  %18 = getelementptr inbounds nuw i8, ptr %0, i64 592
  %19 = load ptr, ptr %18, align 8, !tbaa !80
  %20 = getelementptr inbounds nuw i8, ptr %0, i64 648
  %21 = call i32 @arkAllocVec(ptr noundef %0, ptr noundef %19, ptr noundef nonnull %20) #5
  %.not19 = icmp eq i32 %21, 0
  br i1 %.not19, label %22, label %24

22:                                               ; preds = %17
  call void (ptr, i32, i32, ptr, ptr, ptr, ...) @arkProcessError(ptr noundef nonnull %0, i32 noundef -20, i32 noundef 914, ptr noundef nonnull @__func__.arkStep_SetAutonomous, ptr noundef nonnull @.str, ptr noundef nonnull @.str.22) #5
  br label %24

.thread21:                                        ; preds = %.thread
  %23 = getelementptr inbounds nuw i8, ptr %0, i64 648
  call void @arkFreeVec(ptr noundef %0, ptr noundef nonnull %23) #5
  br label %24

24:                                               ; preds = %.thread21, %17, %2, %22, %16
  %.0 = phi i32 [ -22, %16 ], [ -20, %22 ], [ %4, %2 ], [ 0, %17 ], [ 0, %.thread21 ]
  call void @llvm.lifetime.end.p0(i64 8, ptr nonnull %3) #5
  ret i32 %.0
}